target datalayout = "e-m:e-p270:32:32-p271:32:32-p272:64:64-i64:64-i128:128-f80:128-n8:16:32:64-S128"
target triple = "x86_64-pc-linux-gnu"

%struct._typeobject = type { %struct.PyVarObject, ptr, i64, i64, ptr, i64, ptr, ptr, ptr, ptr, ptr, ptr, ptr, ptr, ptr, ptr, ptr, ptr, ptr, i64, ptr, ptr, ptr, ptr, i64, ptr, ptr, ptr, ptr, ptr, ptr, ptr, ptr, ptr, i64, ptr, ptr, ptr, ptr, ptr, ptr, ptr, ptr, ptr, ptr, ptr, i32, ptr, ptr, i8, i16 }
%struct.PyVarObject = type { %struct._object, i64 }
%struct._object = type { %union.anon, ptr }
%union.anon = type { i64 }
%struct.PyTupleObject = type { %struct.PyVarObject, [1 x ptr] }
%struct.zipobject = type { %struct._object, i64, ptr, ptr, i32 }
%struct.anon = type { i32, i32 }

@_Py_NoneStruct = external global %struct._object, align 8
@zip_new.kwlist = internal global [2 x ptr] [ptr @.str.43, ptr null], align 16
@.str.49 = private unnamed_addr constant [8 x i8] c"|$p:zip\00", align 1

; Function Attrs: alwaysinline nounwind uwtable
define internal void @Py_INCREF(ptr noundef %0) #3 {
  %2 = alloca ptr, align 8
  %3 = alloca i32, align 4
  %4 = alloca i32, align 4
  store ptr %0, ptr %2, align 8, !tbaa !4
  call void @llvm.lifetime.start.p0(i64 4, ptr %3) #9
  %5 = load ptr, ptr %2, align 8, !tbaa !4
  %6 = getelementptr inbounds nuw %struct._object, ptr %5, i32 0, i32 0
  %7 = getelementptr inbounds nuw %struct.anon, ptr %6, i32 0, i32 0
  %8 = load i32, ptr %7, align 8, !tbaa !74
  store i32 %8, ptr %3, align 4, !tbaa !38
  %9 = load i32, ptr %3, align 4, !tbaa !38
  %10 = icmp slt i32 %9, 0
  br i1 %10, label %11, label %12

11:                                               ; preds = %1
  store i32 1, ptr %4, align 4
  br label %18

12:                                               ; preds = %1
  %13 = load i32, ptr %3, align 4, !tbaa !38
  %14 = add i32 %13, 1
  %15 = load ptr, ptr %2, align 8, !tbaa !4
  %16 = getelementptr inbounds nuw %struct._object, ptr %15, i32 0, i32 0
  %17 = getelementptr inbounds nuw %struct.anon, ptr %16, i32 0, i32 0
  store i32 %14, ptr %17, align 8, !tbaa !74
  store i32 0, ptr %4, align 4
  br label %18

18:                                               ; preds = %12, %11
  call void @llvm.lifetime.end.p0(i64 4, ptr %3) #9
  %19 = load i32, ptr %4, align 4
  switch i32 %19, label %21 [
    i32 0, label %20
    i32 1, label %20
  ]

20:                                               ; preds = %18, %18
  ret void

21:                                               ; preds = %18
  unreachable
}

; Function Attrs: inlinehint nounwind uwtable
define internal i64 @Py_SIZE(ptr noundef %0) #4 {
  %2 = alloca ptr, align 8
  store ptr %0, ptr %2, align 8, !tbaa !4
  %3 = load ptr, ptr %2, align 8, !tbaa !4
  %4 = getelementptr inbounds nuw %struct.PyVarObject, ptr %3, i32 0, i32 1
  %5 = load i64, ptr %4, align 8, !tbaa !76
  ret i64 %5
}

; Function Attrs: alwaysinline nounwind uwtable
define internal i32 @_Py_IsImmortal(ptr noundef %0) #3 {
  %2 = alloca ptr, align 8
  store ptr %0, ptr %2, align 8, !tbaa !4
  %3 = load ptr, ptr %2, align 8, !tbaa !4
  %4 = getelementptr inbounds nuw %struct._object, ptr %3, i32 0, i32 0
  %5 = getelementptr inbounds nuw %struct.anon, ptr %4, i32 0, i32 0
  %6 = load i32, ptr %5, align 8, !tbaa !74
  %7 = icmp slt i32 %6, 0
  %8 = zext i1 %7 to i32
  ret i32 %8
}

; Function Attrs: inlinehint nounwind uwtable
define internal ptr @_Py_NewRef(ptr noundef %0) #4 {
  %2 = alloca ptr, align 8
  store ptr %0, ptr %2, align 8, !tbaa !4
  %3 = load ptr, ptr %2, align 8, !tbaa !4
  call void @Py_INCREF(ptr noundef %3)
  %4 = load ptr, ptr %2, align 8, !tbaa !4
  ret ptr %4
}

; Function Attrs: inlinehint nounwind uwtable
define internal void @PyTuple_SET_ITEM(ptr noundef %0, i64 noundef %1, ptr noundef %2) #4 {
  %4 = alloca ptr, align 8
  %5 = alloca i64, align 8
  %6 = alloca ptr, align 8
  %7 = alloca ptr, align 8
  store ptr %0, ptr %4, align 8, !tbaa !4
  store i64 %1, ptr %5, align 8, !tbaa !40
  store ptr %2, ptr %6, align 8, !tbaa !4
  call void @llvm.lifetime.start.p0(i64 8, ptr %7) #9
  %8 = load ptr, ptr %4, align 8, !tbaa !4
  store ptr %8, ptr %7, align 8, !tbaa !9
  %9 = load ptr, ptr %6, align 8, !tbaa !4
  %10 = load ptr, ptr %7, align 8, !tbaa !9
  %11 = getelementptr inbounds nuw %struct.PyTupleObject, ptr %10, i32 0, i32 1
  %12 = load i64, ptr %5, align 8, !tbaa !40
  %13 = getelementptr [1 x ptr], ptr %11, i64 0, i64 %12
  store ptr %9, ptr %13, align 8, !tbaa !4
  call void @llvm.lifetime.end.p0(i64 8, ptr %7) #9
  ret void
}

; Function Attrs: inlinehint nounwind uwtable
define internal i64 @PyTuple_GET_SIZE(ptr noundef %0) #4 {
  %2 = alloca ptr, align 8
  %3 = alloca ptr, align 8
  store ptr %0, ptr %2, align 8, !tbaa !4
  call void @llvm.lifetime.start.p0(i64 8, ptr %3) #9
  %4 = load ptr, ptr %2, align 8, !tbaa !4
  store ptr %4, ptr %3, align 8, !tbaa !9
  %5 = load ptr, ptr %3, align 8, !tbaa !9
  %6 = call i64 @Py_SIZE(ptr noundef %5)
  call void @llvm.lifetime.end.p0(i64 8, ptr %3) #9
  ret i64 %6
}

; Function Attrs: alwaysinline nounwind uwtable
define internal void @Py_DECREF(ptr noundef %0) #3 {
  %2 = alloca ptr, align 8
  store ptr %0, ptr %2, align 8, !tbaa !4
  %3 = load ptr, ptr %2, align 8, !tbaa !4
  %4 = call i32 @_Py_IsImmortal(ptr noundef %3)
  %5 = icmp ne i32 %4, 0
  br i1 %5, label %6, label %7

6:                                                ; preds = %1
  br label %16

7:                                                ; preds = %1
  %8 = load ptr, ptr %2, align 8, !tbaa !4
  %9 = getelementptr inbounds nuw %struct._object, ptr %8, i32 0, i32 0
  %10 = getelementptr inbounds nuw %struct.anon, ptr %9, i32 0, i32 0
  %11 = load i32, ptr %10, align 8, !tbaa !74
  %12 = add i32 %11, -1
  store i32 %12, ptr %10, align 8, !tbaa !74
  %13 = icmp eq i32 %12, 0
  br i1 %13, label %14, label %16

14:                                               ; preds = %7
  %15 = load ptr, ptr %2, align 8, !tbaa !4
  call void @_Py_Dealloc(ptr noundef %15)
  br label %16

16:                                               ; preds = %6, %14, %7
  ret void
}

; Function Attrs: nounwind uwtable
define internal ptr @zip_new(ptr noundef %0, ptr noundef %1, ptr noundef %2) #0 {
  %4 = alloca ptr, align 8
  %5 = alloca ptr, align 8
  %6 = alloca ptr, align 8
  %7 = alloca ptr, align 8
  %8 = alloca ptr, align 8
  %9 = alloca i64, align 8
  %10 = alloca ptr, align 8
  %11 = alloca ptr, align 8
  %12 = alloca i64, align 8
  %13 = alloca i32, align 4
  %14 = alloca ptr, align 8
  %15 = alloca i32, align 4
  %16 = alloca i32, align 4
  %17 = alloca ptr, align 8
  %18 = alloca ptr, align 8
  store ptr %0, ptr %5, align 8, !tbaa !41
  store ptr %1, ptr %6, align 8, !tbaa !4
  store ptr %2, ptr %7, align 8, !tbaa !4
  call void @llvm.lifetime.start.p0(i64 8, ptr %8) #9
  call void @llvm.lifetime.start.p0(i64 8, ptr %9) #9
  call void @llvm.lifetime.start.p0(i64 8, ptr %10) #9
  call void @llvm.lifetime.start.p0(i64 8, ptr %11) #9
  call void @llvm.lifetime.start.p0(i64 8, ptr %12) #9
  call void @llvm.lifetime.start.p0(i64 4, ptr %13) #9
  store i32 0, ptr %13, align 4, !tbaa !38
  %19 = load ptr, ptr %7, align 8, !tbaa !4
  %20 = icmp ne ptr %19, null
  br i1 %20, label %21, label %39

21:                                               ; preds = %3
  call void @llvm.lifetime.start.p0(i64 8, ptr %14) #9
  %22 = call ptr @PyTuple_New(i64 noundef 0)
  store ptr %22, ptr %14, align 8, !tbaa !4
  %23 = load ptr, ptr %14, align 8, !tbaa !4
  %24 = icmp eq ptr %23, null
  br i1 %24, label %25, label %26

25:                                               ; preds = %21
  store ptr null, ptr %4, align 8
  store i32 1, ptr %15, align 4
  br label %36

26:                                               ; preds = %21
  call void @llvm.lifetime.start.p0(i64 4, ptr %16) #9
  %27 = load ptr, ptr %14, align 8, !tbaa !4
  %28 = load ptr, ptr %7, align 8, !tbaa !4
  %29 = call i32 (ptr, ptr, ptr, ptr, ...) @PyArg_ParseTupleAndKeywords(ptr noundef %27, ptr noundef %28, ptr noundef @.str.49, ptr noundef @zip_new.kwlist, ptr noundef %13)
  store i32 %29, ptr %16, align 4, !tbaa !38
  %30 = load ptr, ptr %14, align 8, !tbaa !4
  call void @Py_DECREF(ptr noundef %30)
  %31 = load i32, ptr %16, align 4, !tbaa !38
  %32 = icmp ne i32 %31, 0
  br i1 %32, label %34, label %33

33:                                               ; preds = %26
  store ptr null, ptr %4, align 8
  store i32 1, ptr %15, align 4
  br label %35

34:                                               ; preds = %26
  store i32 0, ptr %15, align 4
  br label %35

35:                                               ; preds = %34, %33
  call void @llvm.lifetime.end.p0(i64 4, ptr %16) #9
  br label %36

36:                                               ; preds = %35, %25
  call void @llvm.lifetime.end.p0(i64 8, ptr %14) #9
  %37 = load i32, ptr %15, align 4
  switch i32 %37, label %118 [
    i32 0, label %38
  ]

38:                                               ; preds = %36
  br label %39

39:                                               ; preds = %38, %3
  %40 = load ptr, ptr %6, align 8, !tbaa !4
  %41 = call i64 @PyTuple_GET_SIZE(ptr noundef %40)
  store i64 %41, ptr %12, align 8, !tbaa !40
  %42 = load i64, ptr %12, align 8, !tbaa !40
  %43 = call ptr @PyTuple_New(i64 noundef %42)
  store ptr %43, ptr %10, align 8, !tbaa !4
  %44 = load ptr, ptr %10, align 8, !tbaa !4
  %45 = icmp eq ptr %44, null
  br i1 %45, label %46, label %47

46:                                               ; preds = %39
  store ptr null, ptr %4, align 8
  store i32 1, ptr %15, align 4
  br label %118

47:                                               ; preds = %39
  store i64 0, ptr %9, align 8, !tbaa !40
  br label %48

48:                                               ; preds = %71, %47
  %49 = load i64, ptr %9, align 8, !tbaa !40
  %50 = load i64, ptr %12, align 8, !tbaa !40
  %51 = icmp slt i64 %49, %50
  br i1 %51, label %52, label %74

52:                                               ; preds = %48
  call void @llvm.lifetime.start.p0(i64 8, ptr %17) #9
  %53 = load ptr, ptr %6, align 8, !tbaa !4
  %54 = getelementptr inbounds nuw %struct.PyTupleObject, ptr %53, i32 0, i32 1
  %55 = load i64, ptr %9, align 8, !tbaa !40
  %56 = getelementptr [1 x ptr], ptr %54, i64 0, i64 %55
  %57 = load ptr, ptr %56, align 8, !tbaa !4
  store ptr %57, ptr %17, align 8, !tbaa !4
  call void @llvm.lifetime.start.p0(i64 8, ptr %18) #9
  %58 = load ptr, ptr %17, align 8, !tbaa !4
  %59 = call ptr @PyObject_GetIter(ptr noundef %58)
  store ptr %59, ptr %18, align 8, !tbaa !4
  %60 = load ptr, ptr %18, align 8, !tbaa !4
  %61 = icmp eq ptr %60, null
  br i1 %61, label %62, label %64

62:                                               ; preds = %52
  %63 = load ptr, ptr %10, align 8, !tbaa !4
  call void @Py_DECREF(ptr noundef %63)
  store ptr null, ptr %4, align 8
  store i32 1, ptr %15, align 4
  br label %68

64:                                               ; preds = %52
  %65 = load ptr, ptr %10, align 8, !tbaa !4
  %66 = load i64, ptr %9, align 8, !tbaa !40
  %67 = load ptr, ptr %18, align 8, !tbaa !4
  call void @PyTuple_SET_ITEM(ptr noundef %65, i64 noundef %66, ptr noundef %67)
  store i32 0, ptr %15, align 4
  br label %68

68:                                               ; preds = %64, %62
  call void @llvm.lifetime.end.p0(i64 8, ptr %18) #9
  call void @llvm.lifetime.end.p0(i64 8, ptr %17) #9
  %69 = load i32, ptr %15, align 4
  switch i32 %69, label %118 [
    i32 0, label %70
  ]

70:                                               ; preds = %68
  br label %71

71:                                               ; preds = %70
  %72 = load i64, ptr %9, align 8, !tbaa !40
  %73 = add i64 %72, 1
  store i64 %73, ptr %9, align 8, !tbaa !40
  br label %48, !llvm.loop !64

74:                                               ; preds = %48
  %75 = load i64, ptr %12, align 8, !tbaa !40
  %76 = call ptr @PyTuple_New(i64 noundef %75)
  store ptr %76, ptr %11, align 8, !tbaa !4
  %77 = load ptr, ptr %11, align 8, !tbaa !4
  %78 = icmp eq ptr %77, null
  br i1 %78, label %79, label %81

79:                                               ; preds = %74
  %80 = load ptr, ptr %10, align 8, !tbaa !4
  call void @Py_DECREF(ptr noundef %80)
  store ptr null, ptr %4, align 8
  store i32 1, ptr %15, align 4
  br label %118

81:                                               ; preds = %74
  store i64 0, ptr %9, align 8, !tbaa !40
  br label %82

82:                                               ; preds = %90, %81
  %83 = load i64, ptr %9, align 8, !tbaa !40
  %84 = load i64, ptr %12, align 8, !tbaa !40
  %85 = icmp slt i64 %83, %84
  br i1 %85, label %86, label %93

86:                                               ; preds = %82
  %87 = load ptr, ptr %11, align 8, !tbaa !4
  %88 = load i64, ptr %9, align 8, !tbaa !40
  %89 = call ptr @_Py_NewRef(ptr noundef @_Py_NoneStruct)
  call void @PyTuple_SET_ITEM(ptr noundef %87, i64 noundef %88, ptr noundef %89)
  br label %90

90:                                               ; preds = %86
  %91 = load i64, ptr %9, align 8, !tbaa !40
  %92 = add i64 %91, 1
  store i64 %92, ptr %9, align 8, !tbaa !40
  br label %82, !llvm.loop !65

93:                                               ; preds = %82
  %94 = load ptr, ptr %5, align 8, !tbaa !41
  %95 = getelementptr inbounds nuw %struct._typeobject, ptr %94, i32 0, i32 36
  %96 = load ptr, ptr %95, align 8, !tbaa !43
  %97 = load ptr, ptr %5, align 8, !tbaa !41
  %98 = call ptr %96(ptr noundef %97, i64 noundef 0)
  store ptr %98, ptr %8, align 8, !tbaa !9
  %99 = load ptr, ptr %8, align 8, !tbaa !9
  %100 = icmp eq ptr %99, null
  br i1 %100, label %101, label %104

101:                                              ; preds = %93
  %102 = load ptr, ptr %10, align 8, !tbaa !4
  call void @Py_DECREF(ptr noundef %102)
  %103 = load ptr, ptr %11, align 8, !tbaa !4
  call void @Py_DECREF(ptr noundef %103)
  store ptr null, ptr %4, align 8
  store i32 1, ptr %15, align 4
  br label %118

104:                                              ; preds = %93
  %105 = load ptr, ptr %10, align 8, !tbaa !4
  %106 = load ptr, ptr %8, align 8, !tbaa !9
  %107 = getelementptr inbounds nuw %struct.zipobject, ptr %106, i32 0, i32 2
  store ptr %105, ptr %107, align 8, !tbaa !56
  %108 = load i64, ptr %12, align 8, !tbaa !40
  %109 = load ptr, ptr %8, align 8, !tbaa !9
  %110 = getelementptr inbounds nuw %struct.zipobject, ptr %109, i32 0, i32 1
  store i64 %108, ptr %110, align 8, !tbaa !59
  %111 = load ptr, ptr %11, align 8, !tbaa !4
  %112 = load ptr, ptr %8, align 8, !tbaa !9
  %113 = getelementptr inbounds nuw %struct.zipobject, ptr %112, i32 0, i32 3
  store ptr %111, ptr %113, align 8, !tbaa !58
  %114 = load i32, ptr %13, align 4, !tbaa !38
  %115 = load ptr, ptr %8, align 8, !tbaa !9
  %116 = getelementptr inbounds nuw %struct.zipobject, ptr %115, i32 0, i32 4
  store i32 %114, ptr %116, align 8, !tbaa !60
  %117 = load ptr, ptr %8, align 8, !tbaa !9
  store ptr %117, ptr %4, align 8
  store i32 1, ptr %15, align 4
  br label %118

118:                                              ; preds = %104, %101, %79, %68, %46, %36
  call void @llvm.lifetime.end.p0(i64 4, ptr %13) #9
  call void @llvm.lifetime.end.p0(i64 8, ptr %12) #9
  call void @llvm.lifetime.end.p0(i64 8, ptr %11) #9
  call void @llvm.lifetime.end.p0(i64 8, ptr %10) #9
  call void @llvm.lifetime.end.p0(i64 8, ptr %9) #9
  call void @llvm.lifetime.end.p0(i64 8, ptr %8) #9
  %119 = load ptr, ptr %4, align 8
  ret ptr %119
}