; Function Attrs: nounwind uwtable
define internal ptr @zip_new(ptr noundef %0, ptr noundef readonly captures(none) %1, ptr noundef %2) #0 {
  %4 = alloca i32, align 4
  call void @llvm.lifetime.start.p0(i64 4, ptr nonnull %4) #9
  store i32 0, ptr %4, align 4, !tbaa !53
  %.not = icmp eq ptr %2, null
  br i1 %.not, label %15, label %5

5:                                                ; preds = %3
  %6 = tail call ptr @PyTuple_New(i64 noundef 0) #9
  %7 = icmp eq ptr %6, null
  br i1 %7, label %.critedge, label %8

8:                                                ; preds = %5
  %9 = call i32 (ptr, ptr, ptr, ptr, ...) @PyArg_ParseTupleAndKeywords(ptr noundef nonnull %6, ptr noundef nonnull %2, ptr noundef nonnull @.str.49, ptr noundef nonnull @zip_new.kwlist, ptr noundef nonnull %4) #9
  %10 = load i32, ptr %6, align 8, !tbaa !33
  %.not.i = icmp sgt i32 %10, -1
  br i1 %.not.i, label %11, label %Py_DECREF.exit

11:                                               ; preds = %8
  %12 = add nsw i32 %10, -1
  store i32 %12, ptr %6, align 8, !tbaa !33
  %13 = icmp eq i32 %12, 0
  br i1 %13, label %14, label %Py_DECREF.exit

14:                                               ; preds = %11
  call void @_Py_Dealloc(ptr noundef nonnull %6) #9
  br label %Py_DECREF.exit

Py_DECREF.exit:                                   ; preds = %8, %11, %14
  %.not55.not = icmp eq i32 %9, 0
  br i1 %.not55.not, label %.critedge, label %15

15:                                               ; preds = %Py_DECREF.exit, %3
  %16 = getelementptr i8, ptr %1, i64 16
  %.val = load i64, ptr %16, align 8, !tbaa !45
  %17 = call ptr @PyTuple_New(i64 noundef %.val) #9
  %18 = icmp eq ptr %17, null
  br i1 %18, label %.critedge, label %.preheader69

.preheader69:                                     ; preds = %15
  %19 = icmp sgt i64 %.val, 0
  br i1 %19, label %.lr.ph, label %._crit_edge.thread

.lr.ph:                                           ; preds = %.preheader69
  %20 = getelementptr inbounds nuw i8, ptr %1, i64 24
  %21 = getelementptr inbounds nuw i8, ptr %17, i64 24
  br label %22

22:                                               ; preds = %.lr.ph, %32
  %.04470 = phi i64 [ 0, %.lr.ph ], [ %34, %32 ]
  %23 = getelementptr [1 x ptr], ptr %20, i64 0, i64 %.04470
  %24 = load ptr, ptr %23, align 8, !tbaa !39
  %25 = call ptr @PyObject_GetIter(ptr noundef %24) #9
  %.not56 = icmp eq ptr %25, null
  br i1 %.not56, label %26, label %32

26:                                               ; preds = %22
  %27 = load i32, ptr %17, align 8, !tbaa !33
  %.not.i57 = icmp sgt i32 %27, -1
  br i1 %.not.i57, label %28, label %.critedge

28:                                               ; preds = %26
  %29 = add nsw i32 %27, -1
  store i32 %29, ptr %17, align 8, !tbaa !33
  %30 = icmp eq i32 %29, 0
  br i1 %30, label %31, label %.critedge

31:                                               ; preds = %28
  call void @_Py_Dealloc(ptr noundef nonnull %17) #9
  br label %.critedge

32:                                               ; preds = %22
  %33 = getelementptr [1 x ptr], ptr %21, i64 0, i64 %.04470
  store ptr %25, ptr %33, align 8, !tbaa !39
  %34 = add nuw nsw i64 %.04470, 1
  %exitcond.not = icmp eq i64 %34, %.val
  br i1 %exitcond.not, label %._crit_edge, label %22, !llvm.loop !136

._crit_edge:                                      ; preds = %32
  %35 = call ptr @PyTuple_New(i64 noundef %.val) #9
  %36 = icmp eq ptr %35, null
  br i1 %36, label %40, label %.lr.ph72

._crit_edge.thread:                               ; preds = %.preheader69
  %37 = call ptr @PyTuple_New(i64 noundef %.val) #9
  %38 = icmp eq ptr %37, null
  br i1 %38, label %40, label %._crit_edge73

.lr.ph72:                                         ; preds = %._crit_edge
  %39 = getelementptr inbounds nuw i8, ptr %35, i64 24
  br label %46

40:                                               ; preds = %._crit_edge.thread, %._crit_edge
  %41 = load i32, ptr %17, align 8, !tbaa !33
  %.not.i59 = icmp sgt i32 %41, -1
  br i1 %.not.i59, label %42, label %.critedge

42:                                               ; preds = %40
  %43 = add nsw i32 %41, -1
  store i32 %43, ptr %17, align 8, !tbaa !33
  %44 = icmp eq i32 %43, 0
  br i1 %44, label %45, label %.critedge

45:                                               ; preds = %42
  call void @_Py_Dealloc(ptr noundef nonnull %17) #9
  br label %.critedge

46:                                               ; preds = %.lr.ph72, %_Py_NewRef.exit
  %.14571 = phi i64 [ 0, %.lr.ph72 ], [ %52, %_Py_NewRef.exit ]
  %47 = load i32, ptr @_Py_NoneStruct, align 8, !tbaa !33
  %48 = icmp slt i32 %47, 0
  br i1 %48, label %_Py_NewRef.exit, label %49

49:                                               ; preds = %46
  %50 = add nuw i32 %47, 1
  store i32 %50, ptr @_Py_NoneStruct, align 8, !tbaa !33
  br label %_Py_NewRef.exit

_Py_NewRef.exit:                                  ; preds = %46, %49
  %51 = getelementptr [1 x ptr], ptr %39, i64 0, i64 %.14571
  store ptr @_Py_NoneStruct, ptr %51, align 8, !tbaa !39
  %52 = add nuw nsw i64 %.14571, 1
  %exitcond74.not = icmp eq i64 %52, %.val
  br i1 %exitcond74.not, label %._crit_edge73, label %46, !llvm.loop !137

._crit_edge73:                                    ; preds = %_Py_NewRef.exit, %._crit_edge.thread
  %53 = phi ptr [ %37, %._crit_edge.thread ], [ %35, %_Py_NewRef.exit ]
  %54 = getelementptr inbounds nuw i8, ptr %0, i64 304
  %55 = load ptr, ptr %54, align 8, !tbaa !40
  %56 = call ptr %55(ptr noundef %0, i64 noundef 0) #9
  %57 = icmp eq ptr %56, null
  br i1 %57, label %58, label %69

58:                                               ; preds = %._crit_edge73
  %59 = load i32, ptr %17, align 8, !tbaa !33
  %.not.i61 = icmp sgt i32 %59, -1
  br i1 %.not.i61, label %60, label %Py_DECREF.exit62

60:                                               ; preds = %58
  %61 = add nsw i32 %59, -1
  store i32 %61, ptr %17, align 8, !tbaa !33
  %62 = icmp eq i32 %61, 0
  br i1 %62, label %63, label %Py_DECREF.exit62

63:                                               ; preds = %60
  call void @_Py_Dealloc(ptr noundef nonnull %17) #9
  br label %Py_DECREF.exit62

Py_DECREF.exit62:                                 ; preds = %58, %60, %63
  %64 = load i32, ptr %53, align 8, !tbaa !33
  %.not.i63 = icmp sgt i32 %64, -1
  br i1 %.not.i63, label %65, label %.critedge

65:                                               ; preds = %Py_DECREF.exit62
  %66 = add nsw i32 %64, -1
  store i32 %66, ptr %53, align 8, !tbaa !33
  %67 = icmp eq i32 %66, 0
  br i1 %67, label %68, label %.critedge

68:                                               ; preds = %65
  call void @_Py_Dealloc(ptr noundef nonnull %53) #9
  br label %.critedge

69:                                               ; preds = %._crit_edge73
  %70 = getelementptr inbounds nuw i8, ptr %56, i64 24
  store ptr %17, ptr %70, align 8, !tbaa !56
  %71 = getelementptr inbounds nuw i8, ptr %56, i64 16
  store i64 %.val, ptr %71, align 8, !tbaa !59
  %72 = getelementptr inbounds nuw i8, ptr %56, i64 32
  store ptr %53, ptr %72, align 8, !tbaa !58
  %73 = load i32, ptr %4, align 4, !tbaa !53
  %74 = getelementptr inbounds nuw i8, ptr %56, i64 40
  store i32 %73, ptr %74, align 8, !tbaa !60
  br label %.critedge

.critedge:                                        ; preds = %26, %28, %31, %68, %65, %Py_DECREF.exit62, %45, %42, %40, %5, %15, %Py_DECREF.exit, %69
  %.3 = phi ptr [ %56, %69 ], [ null, %Py_DECREF.exit ], [ null, %15 ], [ null, %5 ], [ null, %40 ], [ null, %42 ], [ null, %45 ], [ null, %Py_DECREF.exit62 ], [ null, %65 ], [ null, %68 ], [ null, %31 ], [ null, %28 ], [ null, %26 ]
  call void @llvm.lifetime.end.p0(i64 4, ptr nonnull %4) #9
  ret ptr %.3
}